(lp0
(lp1
(lp2
I1
aI2
aI1
aI2
aI0
aI0
aI0
aa(lp3
I7
aI2
aI2
aI2
aI1
aI1
aI0
aa(lp4
I1
aI2
aI2
aI2
aI0
aI0
aI0
aa(lp5
I13
aI2
aI3
aI2
aI5
aI2
aI1
aa(lp6
I9
aI2
aI1
aI2
aI0
aI0
aI0
aa(lp7
I1
aI2
aI4
aI2
aI0
aI0
aI0
aa(lp8
I6
aI2
aI2
aI2
aI0
aI0
aI0
aa(lp9
I13
aI2
aI1
aI2
aI0
aI0
aI0
aa(lp10
I2
aI1
aI1
aI2
aI0
aI0
aI0
aa(lp11
I2
aI1
aI4
aI2
aI8
aI2
aI1
aa(lp12
I5
aI2
aI2
aI2
aI2
aI2
aI0
aa(lp13
I13
aI2
aI2
aI2
aI0
aI0
aI0
aa(lp14
I5
aI2
aI2
aI2
aI5
aI2
aI0
aa(lp15
I9
aI2
aI3
aI2
aI0
aI0
aI0
aa(lp16
I13
aI2
aI1
aI2
aI0
aI0
aI0
aa(lp17
I8
aI1
aI1
aI2
aI0
aI0
aI0
aa(lp18
I10
aI2
aI4
aI2
aI5
aI2
aI0
aa(lp19
I1
aI2
aI2
aI2
aI4
aI4
aI1
aa(lp20
I9
aI2
aI3
aI2
aI2
aI2
aI0
aa(lp21
I1
aI2
aI2
aI2
aI12
aI2
aI1
aa(lp22
I10
aI2
aI4
aI2
aI2
aI2
aI0
aa(lp23
I13
aI2
aI2
aI2
aI0
aI0
aI0
aa(lp24
I10
aI2
aI2
aI2
aI3
aI2
aI1
aa(lp25
I14
aI2
aI2
aI2
aI2
aI3
aI0
aa(lp26
I8
aI2
aI4
aI2
aI0
aI0
aI0
aa(lp27
I2
aI2
aI1
aI2
aI0
aI0
aI0
aa(lp28
I3
aI2
aI3
aI2
aI3
aI3
aI0
aa(lp29
I9
aI2
aI3
aI2
aI3
aI3
aI0
aa(lp30
I5
aI2
aI1
aI2
aI0
aI0
aI0
aa(lp31
I7
aI2
aI2
aI2
aI6
aI2
aI1
aa(lp32
I11
aI2
aI3
aI2
aI2
aI3
aI0
aa(lp33
I7
aI2
aI2
aI2
aI0
aI0
aI0
aa(lp34
I6
aI2
aI1
aI2
aI0
aI0
aI0
aa(lp35
I8
aI2
aI1
aI2
aI0
aI0
aI0
aa(lp36
I13
aI2
aI3
aI2
aI0
aI0
aI0
aa(lp37
I4
aI2
aI1
aI2
aI0
aI0
aI0
aa(lp38
I2
aI2
aI3
aI2
aI5
aI2
aI0
aa(lp39
I1
aI2
aI1
aI2
aI0
aI0
aI0
aa(lp40
I10
aI2
aI1
aI2
aI0
aI0
aI0
aa(lp41
I1
aI1
aI3
aI2
aI14
aI2
aI1
aa(lp42
I4
aI2
aI1
aI2
aI0
aI0
aI0
aa(lp43
I10
aI2
aI2
aI2
aI0
aI0
aI0
aa(lp44
I9
aI2
aI1
aI2
aI0
aI0
aI0
aa(lp45
I1
aI2
aI1
aI2
aI0
aI0
aI0
aa(lp46
I10
aI2
aI4
aI2
aI1
aI2
aI0
aa(lp47
I12
aI2
aI4
aI2
aI0
aI0
aI0
aa(lp48
I3
aI2
aI1
aI2
aI0
aI0
aI0
aa(lp49
I1
aI2
aI2
aI2
aI1
aI1
aI0
aa(lp50
I10
aI2
aI3
aI2
aI0
aI0
aI0
aa(lp51
I14
aI1
aI3
aI2
aI1
aI1
aI0
aa(lp52
I1
aI2
aI1
aI2
aI0
aI0
aI0
aa(lp53
I14
aI2
aI2
aI2
aI1
aI2
aI0
aa(lp54
I1
aI2
aI1
aI2
aI0
aI0
aI0
aa(lp55
I7
aI2
aI2
aI2
aI0
aI0
aI0
aa(lp56
I1
aI2
aI2
aI2
aI0
aI0
aI0
aa(lp57
I13
aI2
aI3
aI2
aI0
aI0
aI0
aa(lp58
I9
aI2
aI2
aI2
aI0
aI0
aI0
aa(lp59
I1
aI2
aI4
aI2
aI0
aI0
aI0
aa(lp60
I6
aI2
aI2
aI2
aI0
aI0
aI0
aa(lp61
I13
aI2
aI1
aI2
aI0
aI0
aI0
aa(lp62
I2
aI1
aI2
aI2
aI0
aI0
aI0
aa(lp63
I6
aI2
aI1
aI2
aI0
aI0
aI0
aa(lp64
I2
aI1
aI4
aI2
aI0
aI0
aI0
aa(lp65
I5
aI2
aI3
aI2
aI0
aI0
aI0
aa(lp66
I3
aI2
aI1
aI2
aI0
aI0
aI0
aa(lp67
I13
aI2
aI2
aI2
aI0
aI0
aI0
aa(lp68
I5
aI2
aI2
aI2
aI0
aI0
aI0
aa(lp69
I9
aI2
aI3
aI2
aI0
aI0
aI0
aa(lp70
I8
aI2
aI1
aI2
aI0
aI0
aI0
aa(lp71
I13
aI2
aI1
aI2
aI0
aI0
aI0
aa(lp72
I8
aI1
aI2
aI2
aI0
aI0
aI0
aa(lp73
I10
aI2
aI4
aI2
aI0
aI0
aI0
aa(lp74
I1
aI2
aI2
aI2
aI0
aI0
aI0
aa(lp75
I9
aI2
aI4
aI2
aI0
aI0
aI0
aa(lp76
I6
aI2
aI1
aI2
aI0
aI0
aI0
aa(lp77
I1
aI2
aI1
aI2
aI0
aI0
aI0
aa(lp78
I1
aI2
aI3
aI2
aI0
aI0
aI0
aa(lp79
I6
aI2
aI1
aI2
aI0
aI0
aI0
aa(lp80
I10
aI2
aI4
aI2
aI0
aI0
aI0
aa(lp81
I13
aI2
aI3
aI2
aI0
aI0
aI0
aa(lp82
I10
aI2
aI3
aI2
aI0
aI0
aI0
aa(lp83
I14
aI2
aI3
aI2
aI0
aI0
aI0
aa(lp84
I8
aI2
aI4
aI2
aI0
aI0
aI0
aa(lp85
I2
aI2
aI2
aI2
aI0
aI0
aI0
aa(lp86
I3
aI2
aI4
aI2
aI0
aI0
aI0
aa(lp87
I9
aI2
aI3
aI2
aI0
aI0
aI0
aa(lp88
I5
aI2
aI2
aI2
aI0
aI0
aI0
aa(lp89
I7
aI2
aI3
aI2
aI0
aI0
aI0
aa(lp90
I11
aI2
aI4
aI2
aI0
aI0
aI0
aa(lp91
I7
aI2
aI2
aI2
aI0
aI0
aI0
aa(lp92
I6
aI2
aI1
aI2
aI0
aI0
aI0
aa(lp93
I8
aI2
aI2
aI2
aI0
aI0
aI0
aa(lp94
I13
aI2
aI3
aI2
aI0
aI0
aI0
aa(lp95
I4
aI2
aI1
aI2
aI0
aI0
aI0
aa(lp96
I13
aI2
aI1
aI2
aI0
aI0
aI0
aa(lp97
I2
aI2
aI3
aI2
aI0
aI0
aI0
aa(lp98
I13
aI2
aI1
aI2
aI0
aI0
aI0
aa(lp99
I1
aI2
aI2
aI2
aI0
aI0
aI0
aa(lp100
I10
aI2
aI2
aI2
aI0
aI0
aI0
aa(lp101
I1
aI1
aI3
aI2
aI0
aI0
aI0
aa(lp102
I1
aI2
aI1
aI2
aI0
aI0
aI0
aa(lp103
I4
aI2
aI2
aI2
aI0
aI0
aI0
aa(lp104
I10
aI2
aI2
aI2
aI0
aI0
aI0
aa(lp105
I9
aI2
aI2
aI2
aI0
aI0
aI0
aa(lp106
I1
aI2
aI2
aI2
aI0
aI0
aI0
aa(lp107
I10
aI2
aI4
aI2
aI0
aI0
aI0
aa(lp108
I12
aI2
aI4
aI2
aI0
aI0
aI0
aa(lp109
I13
aI2
aI1
aI2
aI0
aI0
aI0
aa(lp110
I3
aI2
aI2
aI2
aI0
aI0
aI0
aa(lp111
I1
aI2
aI3
aI2
aI0
aI0
aI0
aa(lp112
I10
aI2
aI4
aI2
aI0
aI0
aI0
aa(lp113
I14
aI1
aI3
aI2
aI0
aI0
aI0
aa(lp114
I1
aI2
aI2
aI2
aI0
aI0
aI0
aa(lp115
I14
aI2
aI2
aI2
aI0
aI0
aI0
aaa(lp116
I0
aI0
aI0
aI0
aI0
aI0
aI0
aI0
aI0
aI0
aI1
aI0
aI1
aI0
aI0
aI0
aI0
aI0
aI0
aI0
aI0
aI0
aI0
aI0
aI0
aI0
aI0
aI0
aI0
aI0
aI1
aI0
aI0
aI0
aI0
aI0
aI1
aI1
aI0
aI0
aI0
aI1
aI0
aI0
aI0
aI0
aI0
aI0
aI0
aI1
aI0
aI0
aI0
aI0
aI0
aI1
aI0
aI0
aI0
aI0
aI0
aI0
aI0
aI0
aI0
aI0
aI0
aI0
aI0
aI0
aI0
aI1
aI1
aI1
aI0
aI0
aI1
aI0
aI0
aI0
aI1
aI1
aI0
aI0
aI0
aI0
aI0
aI0
aI0
aI0
aI0
aI0
aI0
aI0
aI0
aI0
aI0
aI0
aI0
aI0
aI0
aI0
aI0
aI0
aI0
aI0
aI0
aI0
aI1
aI0
aI0
aI1
aI0
aI0
aa.